target datalayout = "e-m:e-p270:32:32-p271:32:32-p272:64:64-i64:64-i128:128-f80:128-n8:16:32:64-S128"
target triple = "x86_64-pc-linux-gnu"

%struct.rb_data_type_struct = type { ptr, %struct.anon, ptr, ptr, i64 }
%struct.anon = type { ptr, ptr, ptr, ptr, [1 x ptr] }
%struct.rbimpl_size_mul_overflow_tag = type { i8, i64 }

@ossl_ssl_type = constant %struct.rb_data_type_struct { ptr @.str, %struct.anon { ptr @ossl_ssl_mark, ptr @ossl_ssl_free, ptr null, ptr null, [1 x ptr] zeroinitializer }, ptr null, ptr null, i64 33 }, align 8
@rb_eRuntimeError = external global i64, align 8
@.str.267 = private unnamed_addr constant [23 x i8] c"SSL is not initialized\00", align 1

; Function Attrs: inlinehint nounwind sspstrong willreturn memory(none) uwtable
define internal { i8, i64 } @rbimpl_size_mul_overflow(i64 noundef %0, i64 noundef %1) #9 {
  %3 = alloca %struct.rbimpl_size_mul_overflow_tag, align 8
  %4 = alloca i64, align 8
  %5 = alloca i64, align 8
  store i64 %0, ptr %4, align 8, !tbaa !14
  store i64 %1, ptr %5, align 8, !tbaa !14
  call void @llvm.memset.p0.i64(ptr align 8 %3, i8 0, i64 16, i1 false)
  %6 = load i64, ptr %4, align 8, !tbaa !14
  %7 = load i64, ptr %5, align 8, !tbaa !14
  %8 = getelementptr inbounds nuw %struct.rbimpl_size_mul_overflow_tag, ptr %3, i32 0, i32 1
  %9 = call { i64, i1 } @llvm.umul.with.overflow.i64(i64 %6, i64 %7)
  %10 = extractvalue { i64, i1 } %9, 1
  %11 = extractvalue { i64, i1 } %9, 0
  store i64 %11, ptr %8, align 8
  %12 = getelementptr inbounds nuw %struct.rbimpl_size_mul_overflow_tag, ptr %3, i32 0, i32 0
  %13 = zext i1 %10 to i8
  store i8 %13, ptr %12, align 8, !tbaa !105
  %14 = load { i8, i64 }, ptr %3, align 8
  ret { i8, i64 } %14
}

; Function Attrs: inlinehint nounwind sspstrong uwtable
define internal i64 @rbimpl_size_mul_or_raise(i64 noundef %0, i64 noundef %1) #4 {
  %3 = alloca i64, align 8
  %4 = alloca i64, align 8
  %5 = alloca %struct.rbimpl_size_mul_overflow_tag, align 8
  store i64 %0, ptr %3, align 8, !tbaa !14
  store i64 %1, ptr %4, align 8, !tbaa !14
  call void @llvm.lifetime.start.p0(i64 16, ptr %5) #20
  %6 = load i64, ptr %3, align 8, !tbaa !14
  %7 = load i64, ptr %4, align 8, !tbaa !14
  %8 = call { i8, i64 } @rbimpl_size_mul_overflow(i64 noundef %6, i64 noundef %7) #23
  %9 = getelementptr inbounds nuw { i8, i64 }, ptr %5, i32 0, i32 0
  %10 = extractvalue { i8, i64 } %8, 0
  store i8 %10, ptr %9, align 8
  %11 = getelementptr inbounds nuw { i8, i64 }, ptr %5, i32 0, i32 1
  %12 = extractvalue { i8, i64 } %8, 1
  store i64 %12, ptr %11, align 8
  %13 = getelementptr inbounds nuw %struct.rbimpl_size_mul_overflow_tag, ptr %5, i32 0, i32 0
  %14 = load i8, ptr %13, align 8, !tbaa !105, !range !62, !noundef !63
  %15 = trunc i8 %14 to i1
  %16 = xor i1 %15, true
  %17 = xor i1 %16, true
  %18 = xor i1 %17, true
  %19 = zext i1 %18 to i32
  %20 = sext i32 %19 to i64
  %21 = call i64 @llvm.expect.i64(i64 %20, i64 1)
  %22 = icmp ne i64 %21, 0
  br i1 %22, label %23, label %26

23:                                               ; preds = %2
  %24 = getelementptr inbounds nuw %struct.rbimpl_size_mul_overflow_tag, ptr %5, i32 0, i32 1
  %25 = load i64, ptr %24, align 8, !tbaa !107
  call void @llvm.lifetime.end.p0(i64 16, ptr %5) #20
  ret i64 %25

26:                                               ; preds = %2
  %27 = load i64, ptr %3, align 8, !tbaa !14
  %28 = load i64, ptr %4, align 8, !tbaa !14
  call void @ruby_malloc_size_overflow(i64 noundef %27, i64 noundef %28) #22
  unreachable
}

; Function Attrs: nounwind sspstrong uwtable
define internal i64 @ossl_ssl_get_peer_finished(i64 noundef %0) #0 {
  %2 = alloca i64, align 8
  %3 = alloca i64, align 8
  %4 = alloca ptr, align 8
  %5 = alloca [1 x i8], align 1
  %6 = alloca ptr, align 8
  %7 = alloca i64, align 8
  %8 = alloca i32, align 4
  store i64 %0, ptr %3, align 8, !tbaa !14
  call void @llvm.lifetime.start.p0(i64 8, ptr %4) #20
  call void @llvm.lifetime.start.p0(i64 1, ptr %5) #20
  call void @llvm.lifetime.start.p0(i64 8, ptr %6) #20
  call void @llvm.lifetime.start.p0(i64 8, ptr %7) #20
  br label %9

9:                                                ; preds = %1
  %10 = load i64, ptr %3, align 8, !tbaa !14
  %11 = call ptr @rb_check_typeddata(i64 noundef %10, ptr noundef @ossl_ssl_type)
  store ptr %11, ptr %4, align 8, !tbaa !10
  %12 = load ptr, ptr %4, align 8, !tbaa !10
  %13 = icmp ne ptr %12, null
  br i1 %13, label %16, label %14

14:                                               ; preds = %9
  %15 = load i64, ptr @rb_eRuntimeError, align 8, !tbaa !14
  call void (i64, ptr, ...) @ossl_raise(i64 noundef %15, ptr noundef @.str.267) #22
  unreachable

16:                                               ; preds = %9
  br label %17

17:                                               ; preds = %16
  br label %18

18:                                               ; preds = %17
  %19 = load ptr, ptr %4, align 8, !tbaa !10
  %20 = getelementptr inbounds [1 x i8], ptr %5, i64 0, i64 0
  %21 = call i64 @SSL_get_peer_finished(ptr noundef %19, ptr noundef %20, i64 noundef 0)
  store i64 %21, ptr %7, align 8, !tbaa !14
  %22 = load i64, ptr %7, align 8, !tbaa !14
  %23 = icmp eq i64 %22, 0
  br i1 %23, label %24, label %25

24:                                               ; preds = %18
  store i64 4, ptr %2, align 8
  store i32 1, ptr %8, align 4
  br label %42

25:                                               ; preds = %18
  %26 = load i64, ptr %7, align 8, !tbaa !14
  %27 = call i64 @rbimpl_size_mul_or_raise(i64 noundef 1, i64 noundef %26)
  %28 = alloca i8, i64 %27, align 16
  store ptr %28, ptr %6, align 8, !tbaa !16
  %29 = load ptr, ptr %4, align 8, !tbaa !10
  %30 = load ptr, ptr %6, align 8, !tbaa !16
  %31 = load i64, ptr %7, align 8, !tbaa !14
  %32 = call i64 @SSL_get_peer_finished(ptr noundef %29, ptr noundef %30, i64 noundef %31)
  br i1 false, label %33, label %36

33:                                               ; preds = %25
  %34 = load i64, ptr %7, align 8, !tbaa !14
  %35 = call i1 @llvm.is.constant.i64(i64 %34)
  br label %36

36:                                               ; preds = %33, %25
  %37 = phi i1 [ false, %25 ], [ %35, %33 ]
  %38 = select i1 %37, ptr @rb_str_new_static, ptr @rb_str_new
  %39 = load ptr, ptr %6, align 8, !tbaa !16
  %40 = load i64, ptr %7, align 8, !tbaa !14
  %41 = call i64 %38(ptr noundef %39, i64 noundef %40)
  store i64 %41, ptr %2, align 8
  store i32 1, ptr %8, align 4
  br label %42

42:                                               ; preds = %36, %24
  call void @llvm.lifetime.end.p0(i64 8, ptr %7) #20
  call void @llvm.lifetime.end.p0(i64 8, ptr %6) #20
  call void @llvm.lifetime.end.p0(i64 1, ptr %5) #20
  call void @llvm.lifetime.end.p0(i64 8, ptr %4) #20
  %43 = load i64, ptr %2, align 8
  ret i64 %43
}