; Function Attrs: nounwind sspstrong uwtable
define internal i64 @ossl_ssl_get_peer_finished(i64 noundef %0) #0 {
  %2 = alloca [1 x i8], align 1
  call void @llvm.lifetime.start.p0(i64 1, ptr nonnull %2) #9
  %3 = tail call ptr @rb_check_typeddata(i64 noundef %0, ptr noundef nonnull @ossl_ssl_type) #9
  %.not = icmp eq ptr %3, null
  br i1 %.not, label %4, label %6

4:                                                ; preds = %1
  %5 = load i64, ptr @rb_eRuntimeError, align 8, !tbaa !10
  tail call void (i64, ptr, ...) @ossl_raise(i64 noundef %5, ptr noundef nonnull @.str.267) #10
  unreachable

6:                                                ; preds = %1
  %7 = call i64 @SSL_get_peer_finished(ptr noundef nonnull %3, ptr noundef nonnull %2, i64 noundef 0) #9
  %8 = icmp eq i64 %7, 0
  br i1 %8, label %13, label %9

9:                                                ; preds = %6
  %10 = alloca i8, i64 %7, align 16
  %11 = call i64 @SSL_get_peer_finished(ptr noundef nonnull %3, ptr noundef nonnull %10, i64 noundef %7) #9
  %12 = call i64 @rb_str_new(ptr noundef nonnull %10, i64 noundef %7) #9
  br label %13

13:                                               ; preds = %6, %9
  %.0 = phi i64 [ %12, %9 ], [ 4, %6 ]
  call void @llvm.lifetime.end.p0(i64 1, ptr nonnull %2) #9
  ret i64 %.0
}